; Function Attrs: mustprogress uwtable
define internal noundef ptr @"_ZZN4pkpy15__init_builtinsEPNS_2VMEEN4$_468__invokeES1_NS_8ArgsViewE"(ptr noundef nonnull %0, ptr nocapture readonly %1, ptr nocapture readnone %2) #4 align 2 {
  %4 = load ptr, ptr %1, align 8
  %5 = tail call noundef ptr @_ZN4pkpy2VM7py_nextEPNS_8PyObjectE(ptr noundef nonnull align 8 dereferenceable(264913) %0, ptr noundef %4)
  %6 = getelementptr inbounds i8, ptr %0, i64 264552
  %7 = load ptr, ptr %6, align 8
  %8 = icmp eq ptr %5, %7
  br i1 %8, label %9, label %"_ZZN4pkpy15__init_builtinsEPNS_2VMEENK4$_46clES1_NS_8ArgsViewE.exit"

9:                                                ; preds = %3
  %10 = getelementptr inbounds i8, ptr %0, i64 264296
  %11 = load ptr, ptr %10, align 8
  %12 = getelementptr inbounds i8, ptr %11, i64 8
  store ptr %12, ptr %10, align 8
  store ptr %7, ptr %11, align 8
  %13 = load ptr, ptr @_ZN4pkpy7PY_NULLE, align 8
  %14 = load ptr, ptr %10, align 8
  %15 = getelementptr inbounds i8, ptr %14, i64 8
  store ptr %15, ptr %10, align 8
  store ptr %13, ptr %14, align 8
  %16 = tail call noundef ptr @_ZN4pkpy2VM10vectorcallEiib(ptr noundef nonnull align 8 dereferenceable(264913) %0, i32 noundef 0, i32 noundef 0, i1 noundef zeroext false)
  tail call void @_ZN4pkpy2VM6_errorEPNS_8PyObjectE(ptr noundef nonnull align 8 dereferenceable(264913) %0, ptr noundef %16)
  br label %"_ZZN4pkpy15__init_builtinsEPNS_2VMEENK4$_46clES1_NS_8ArgsViewE.exit"

"_ZZN4pkpy15__init_builtinsEPNS_2VMEENK4$_46clES1_NS_8ArgsViewE.exit": ; preds = %3, %9
  ret ptr %5
}